; Function Attrs: mustprogress uwtable
define void @_ZN10MainWindow5aboutEv(ptr noundef nonnull align 8 dereferenceable(1376) %0) local_unnamed_addr #9 align 2 personality ptr @__gxx_personality_v0 {
  %2 = tail call noalias noundef nonnull dereferenceable(56) ptr @_Znwm(i64 noundef 56) #29
  invoke void @_ZN11AboutDialogC1EP7QWidget(ptr noundef nonnull align 8 dereferenceable(56) %2, ptr noundef nonnull %0)
          to label %3 unwind label %4

3:                                                ; preds = %1
  tail call void @_ZN7QWidget4showEv(ptr noundef nonnull align 8 dereferenceable(48) %2)
  ret void

4:                                                ; preds = %1
  %5 = landingpad { ptr, i32 }
          cleanup
  tail call void @_ZdlPv(ptr noundef nonnull %2) #25
  resume { ptr, i32 } %5
}